; Function Attrs: nounwind uwtable
define hidden i32 @ir_emit(ptr nocapture noundef %0, i32 noundef %1, i32 noundef %2, i32 noundef %3, i32 noundef %4) local_unnamed_addr #0 {
  %6 = getelementptr inbounds i8, ptr %0, i64 8
  %7 = load i32, ptr %6, align 8
  %8 = getelementptr inbounds i8, ptr %0, i64 12
  %9 = load i32, ptr %8, align 4
  %.not.i = icmp slt i32 %7, %9
  %.pre = load ptr, ptr %0, align 8
  br i1 %.not.i, label %ir_next_insn.exit, label %10

10:                                               ; preds = %5
  %11 = getelementptr inbounds i8, ptr %0, i64 20
  %12 = load i32, ptr %11, align 4
  %13 = icmp slt i32 %9, 4096
  %14 = shl nsw i32 %9, 1
  %15 = icmp ult i32 %9, 8192
  %16 = add nuw nsw i32 %9, 4096
  %spec.select.i.i = select i1 %15, i32 8192, i32 %16
  %.sink.i.i = select i1 %13, i32 %14, i32 %spec.select.i.i
  store i32 %.sink.i.i, ptr %8, align 4
  %17 = sext i32 %12 to i64
  %18 = sub nsw i64 0, %17
  %19 = getelementptr inbounds %struct._ir_insn, ptr %.pre, i64 %18
  %20 = add nsw i32 %12, %.sink.i.i
  %21 = sext i32 %20 to i64
  %22 = shl nsw i64 %21, 4
  %23 = tail call ptr @_erealloc(ptr noundef %19, i64 noundef %22) #24
  %24 = load i32, ptr %11, align 4
  %25 = sext i32 %24 to i64
  %26 = getelementptr inbounds %struct._ir_insn, ptr %23, i64 %25
  store ptr %26, ptr %0, align 8
  br label %ir_next_insn.exit

ir_next_insn.exit:                                ; preds = %5, %10
  %27 = phi ptr [ %.pre, %5 ], [ %26, %10 ]
  %28 = add nsw i32 %7, 1
  store i32 %28, ptr %6, align 8
  %29 = sext i32 %7 to i64
  %30 = getelementptr inbounds %struct._ir_insn, ptr %27, i64 %29
  store i32 %1, ptr %30, align 8
  %31 = getelementptr inbounds i8, ptr %30, i64 4
  store i32 %2, ptr %31, align 4
  %32 = getelementptr inbounds i8, ptr %30, i64 8
  store i32 %3, ptr %32, align 8
  %33 = getelementptr inbounds i8, ptr %30, i64 12
  store i32 %4, ptr %33, align 4
  ret i32 %7
}